; Function Attrs: mustprogress uwtable
define internal noundef zeroext i1 @"_ZNSt17_Function_handlerIFvP12cmSourceFileEZN10cmMakefile24AddCustomCommandOldStyleERKNSt7__cxx1112basic_stringIcSt11char_traitsIcESaIcEEERKSt6vectorIS9_SaIS9_EESG_SB_RK20cmCustomCommandLinesPKcE3$_0E10_M_managerERSt9_Any_dataRKSO_St18_Manager_operation"(ptr nocapture noundef nonnull align 8 dereferenceable(16) %0, ptr nocapture noundef nonnull readonly align 8 dereferenceable(16) %1, i32 noundef %2) #4 align 2 personality ptr @__gxx_personality_v0 {
  switch i32 %2, label %"_ZNSt14_Function_base13_Base_managerIZN10cmMakefile24AddCustomCommandOldStyleERKNSt7__cxx1112basic_stringIcSt11char_traitsIcESaIcEEERKSt6vectorIS7_SaIS7_EESE_S9_RK20cmCustomCommandLinesPKcE3$_0E10_M_managerERSt9_Any_dataRKSM_St18_Manager_operation.exit" [
    i32 0, label %4
    i32 1, label %5
    i32 3, label %13
    i32 2, label %6
  ]

4:                                                ; preds = %3
  store ptr @"_ZTIZN10cmMakefile24AddCustomCommandOldStyleERKNSt7__cxx1112basic_stringIcSt11char_traitsIcESaIcEEERKSt6vectorIS5_SaIS5_EESC_S7_RK20cmCustomCommandLinesPKcE3$_0", ptr %0, align 8
  br label %"_ZNSt14_Function_base13_Base_managerIZN10cmMakefile24AddCustomCommandOldStyleERKNSt7__cxx1112basic_stringIcSt11char_traitsIcESaIcEEERKSt6vectorIS7_SaIS7_EESE_S9_RK20cmCustomCommandLinesPKcE3$_0E10_M_managerERSt9_Any_dataRKSM_St18_Manager_operation.exit"

5:                                                ; preds = %3
  %.val = load ptr, ptr %1, align 8
  store ptr %.val, ptr %0, align 8
  br label %"_ZNSt14_Function_base13_Base_managerIZN10cmMakefile24AddCustomCommandOldStyleERKNSt7__cxx1112basic_stringIcSt11char_traitsIcESaIcEEERKSt6vectorIS7_SaIS7_EESE_S9_RK20cmCustomCommandLinesPKcE3$_0E10_M_managerERSt9_Any_dataRKSM_St18_Manager_operation.exit"

6:                                                ; preds = %3
  %.val6 = load ptr, ptr %1, align 8
  %7 = tail call noalias noundef nonnull dereferenceable(40) ptr @_Znwm(i64 noundef 40) #33
  %8 = load ptr, ptr %.val6, align 8
  store ptr %8, ptr %7, align 8
  %9 = getelementptr inbounds i8, ptr %7, i64 8
  %10 = getelementptr inbounds i8, ptr %.val6, i64 8
  invoke void @_ZNSt7__cxx1112basic_stringIcSt11char_traitsIcESaIcEEC1ERKS4_(ptr noundef nonnull align 8 dereferenceable(32) %9, ptr noundef nonnull align 8 dereferenceable(32) %10)
          to label %"_ZNSt14_Function_base13_Base_managerIZN10cmMakefile24AddCustomCommandOldStyleERKNSt7__cxx1112basic_stringIcSt11char_traitsIcESaIcEEERKSt6vectorIS7_SaIS7_EESE_S9_RK20cmCustomCommandLinesPKcE3$_0E15_M_init_functorIRKSK_EEvRSt9_Any_dataOT_.exit.i" unwind label %11

11:                                               ; preds = %6
  %12 = landingpad { ptr, i32 }
          cleanup
  tail call void @_ZdlPv(ptr noundef nonnull %7) #30
  resume { ptr, i32 } %12

"_ZNSt14_Function_base13_Base_managerIZN10cmMakefile24AddCustomCommandOldStyleERKNSt7__cxx1112basic_stringIcSt11char_traitsIcESaIcEEERKSt6vectorIS7_SaIS7_EESE_S9_RK20cmCustomCommandLinesPKcE3$_0E15_M_init_functorIRKSK_EEvRSt9_Any_dataOT_.exit.i": ; preds = %6
  store ptr %7, ptr %0, align 8
  br label %"_ZNSt14_Function_base13_Base_managerIZN10cmMakefile24AddCustomCommandOldStyleERKNSt7__cxx1112basic_stringIcSt11char_traitsIcESaIcEEERKSt6vectorIS7_SaIS7_EESE_S9_RK20cmCustomCommandLinesPKcE3$_0E10_M_managerERSt9_Any_dataRKSM_St18_Manager_operation.exit"

13:                                               ; preds = %3
  %.val7.i = load ptr, ptr %0, align 8
  %14 = icmp eq ptr %.val7.i, null
  br i1 %14, label %"_ZNSt14_Function_base13_Base_managerIZN10cmMakefile24AddCustomCommandOldStyleERKNSt7__cxx1112basic_stringIcSt11char_traitsIcESaIcEEERKSt6vectorIS7_SaIS7_EESE_S9_RK20cmCustomCommandLinesPKcE3$_0E10_M_managerERSt9_Any_dataRKSM_St18_Manager_operation.exit", label %15

15:                                               ; preds = %13
  %16 = getelementptr inbounds i8, ptr %.val7.i, i64 8
  tail call void @_ZNSt7__cxx1112basic_stringIcSt11char_traitsIcESaIcEED1Ev(ptr noundef nonnull align 8 dereferenceable(32) %16) #29
  tail call void @_ZdlPv(ptr noundef nonnull %.val7.i) #30
  br label %"_ZNSt14_Function_base13_Base_managerIZN10cmMakefile24AddCustomCommandOldStyleERKNSt7__cxx1112basic_stringIcSt11char_traitsIcESaIcEEERKSt6vectorIS7_SaIS7_EESE_S9_RK20cmCustomCommandLinesPKcE3$_0E10_M_managerERSt9_Any_dataRKSM_St18_Manager_operation.exit"

"_ZNSt14_Function_base13_Base_managerIZN10cmMakefile24AddCustomCommandOldStyleERKNSt7__cxx1112basic_stringIcSt11char_traitsIcESaIcEEERKSt6vectorIS7_SaIS7_EESE_S9_RK20cmCustomCommandLinesPKcE3$_0E10_M_managerERSt9_Any_dataRKSM_St18_Manager_operation.exit": ; preds = %3, %15, %13, %"_ZNSt14_Function_base13_Base_managerIZN10cmMakefile24AddCustomCommandOldStyleERKNSt7__cxx1112basic_stringIcSt11char_traitsIcESaIcEEERKSt6vectorIS7_SaIS7_EESE_S9_RK20cmCustomCommandLinesPKcE3$_0E15_M_init_functorIRKSK_EEvRSt9_Any_dataOT_.exit.i", %5, %4
  ret i1 false
}